target datalayout = "e-m:e-p270:32:32-p271:32:32-p272:64:64-i64:64-i128:128-f80:128-n8:16:32:64-S128"
target triple = "x86_64-pc-linux-gnu"

@dc_lsp = internal constant [10 x i16] [i16 3131, i16 4721, i16 7690, i16 10806, i16 13872, i16 16495, i16 19752, i16 22260, i16 25484, i16 27718], align 16

; Function Attrs: nounwind uwtable
define void @ff_g723_1_inverse_quant(ptr noundef %0, ptr noundef %1, ptr noundef %2, i32 noundef %3) #0 {
  %5 = alloca ptr, align 8
  %6 = alloca ptr, align 8
  %7 = alloca ptr, align 8
  %8 = alloca i32, align 4
  %9 = alloca i32, align 4
  %10 = alloca i32, align 4
  %11 = alloca i32, align 4
  %12 = alloca i32, align 4
  %13 = alloca i32, align 4
  %14 = alloca i32, align 4
  store ptr %0, ptr %5, align 8, !tbaa !4
  store ptr %1, ptr %6, align 8, !tbaa !4
  store ptr %2, ptr %7, align 8, !tbaa !33
  store i32 %3, ptr %8, align 4, !tbaa !9
  call void @llvm.lifetime.start.p0(i64 4, ptr %9) #6
  call void @llvm.lifetime.start.p0(i64 4, ptr %10) #6
  call void @llvm.lifetime.start.p0(i64 4, ptr %11) #6
  call void @llvm.lifetime.start.p0(i64 4, ptr %12) #6
  call void @llvm.lifetime.start.p0(i64 4, ptr %13) #6
  call void @llvm.lifetime.start.p0(i64 4, ptr %14) #6
  %15 = load i32, ptr %8, align 4, !tbaa !9
  %16 = icmp ne i32 %15, 0
  br i1 %16, label %18, label %17

17:                                               ; preds = %4
  store i32 256, ptr %9, align 4, !tbaa !9
  store i32 12288, ptr %10, align 4, !tbaa !9
  br label %25

18:                                               ; preds = %4
  store i32 512, ptr %9, align 4, !tbaa !9
  store i32 23552, ptr %10, align 4, !tbaa !9
  %19 = load ptr, ptr %7, align 8, !tbaa !33
  %20 = getelementptr inbounds i8, ptr %19, i64 2
  store i8 0, ptr %20, align 1, !tbaa !16
  %21 = load ptr, ptr %7, align 8, !tbaa !33
  %22 = getelementptr inbounds i8, ptr %21, i64 1
  store i8 0, ptr %22, align 1, !tbaa !16
  %23 = load ptr, ptr %7, align 8, !tbaa !33
  %24 = getelementptr inbounds i8, ptr %23, i64 0
  store i8 0, ptr %24, align 1, !tbaa !16
  br label %25

25:                                               ; preds = %18, %17
  %26 = load ptr, ptr %7, align 8, !tbaa !33
  %27 = getelementptr inbounds i8, ptr %26, i64 0
  %28 = load i8, ptr %27, align 1, !tbaa !16
  %29 = zext i8 %28 to i64
  %30 = getelementptr inbounds nuw [256 x [3 x i16]], ptr @ff_g723_1_lsp_band0, i64 0, i64 %29
  %31 = getelementptr inbounds [3 x i16], ptr %30, i64 0, i64 0
  %32 = load i16, ptr %31, align 2, !tbaa !11
  %33 = load ptr, ptr %5, align 8, !tbaa !4
  %34 = getelementptr inbounds i16, ptr %33, i64 0
  store i16 %32, ptr %34, align 2, !tbaa !11
  %35 = load ptr, ptr %7, align 8, !tbaa !33
  %36 = getelementptr inbounds i8, ptr %35, i64 0
  %37 = load i8, ptr %36, align 1, !tbaa !16
  %38 = zext i8 %37 to i64
  %39 = getelementptr inbounds nuw [256 x [3 x i16]], ptr @ff_g723_1_lsp_band0, i64 0, i64 %38
  %40 = getelementptr inbounds [3 x i16], ptr %39, i64 0, i64 1
  %41 = load i16, ptr %40, align 2, !tbaa !11
  %42 = load ptr, ptr %5, align 8, !tbaa !4
  %43 = getelementptr inbounds i16, ptr %42, i64 1
  store i16 %41, ptr %43, align 2, !tbaa !11
  %44 = load ptr, ptr %7, align 8, !tbaa !33
  %45 = getelementptr inbounds i8, ptr %44, i64 0
  %46 = load i8, ptr %45, align 1, !tbaa !16
  %47 = zext i8 %46 to i64
  %48 = getelementptr inbounds nuw [256 x [3 x i16]], ptr @ff_g723_1_lsp_band0, i64 0, i64 %47
  %49 = getelementptr inbounds [3 x i16], ptr %48, i64 0, i64 2
  %50 = load i16, ptr %49, align 2, !tbaa !11
  %51 = load ptr, ptr %5, align 8, !tbaa !4
  %52 = getelementptr inbounds i16, ptr %51, i64 2
  store i16 %50, ptr %52, align 2, !tbaa !11
  %53 = load ptr, ptr %7, align 8, !tbaa !33
  %54 = getelementptr inbounds i8, ptr %53, i64 1
  %55 = load i8, ptr %54, align 1, !tbaa !16
  %56 = zext i8 %55 to i64
  %57 = getelementptr inbounds nuw [256 x [3 x i16]], ptr @ff_g723_1_lsp_band1, i64 0, i64 %56
  %58 = getelementptr inbounds [3 x i16], ptr %57, i64 0, i64 0
  %59 = load i16, ptr %58, align 2, !tbaa !11
  %60 = load ptr, ptr %5, align 8, !tbaa !4
  %61 = getelementptr inbounds i16, ptr %60, i64 3
  store i16 %59, ptr %61, align 2, !tbaa !11
  %62 = load ptr, ptr %7, align 8, !tbaa !33
  %63 = getelementptr inbounds i8, ptr %62, i64 1
  %64 = load i8, ptr %63, align 1, !tbaa !16
  %65 = zext i8 %64 to i64
  %66 = getelementptr inbounds nuw [256 x [3 x i16]], ptr @ff_g723_1_lsp_band1, i64 0, i64 %65
  %67 = getelementptr inbounds [3 x i16], ptr %66, i64 0, i64 1
  %68 = load i16, ptr %67, align 2, !tbaa !11
  %69 = load ptr, ptr %5, align 8, !tbaa !4
  %70 = getelementptr inbounds i16, ptr %69, i64 4
  store i16 %68, ptr %70, align 2, !tbaa !11
  %71 = load ptr, ptr %7, align 8, !tbaa !33
  %72 = getelementptr inbounds i8, ptr %71, i64 1
  %73 = load i8, ptr %72, align 1, !tbaa !16
  %74 = zext i8 %73 to i64
  %75 = getelementptr inbounds nuw [256 x [3 x i16]], ptr @ff_g723_1_lsp_band1, i64 0, i64 %74
  %76 = getelementptr inbounds [3 x i16], ptr %75, i64 0, i64 2
  %77 = load i16, ptr %76, align 2, !tbaa !11
  %78 = load ptr, ptr %5, align 8, !tbaa !4
  %79 = getelementptr inbounds i16, ptr %78, i64 5
  store i16 %77, ptr %79, align 2, !tbaa !11
  %80 = load ptr, ptr %7, align 8, !tbaa !33
  %81 = getelementptr inbounds i8, ptr %80, i64 2
  %82 = load i8, ptr %81, align 1, !tbaa !16
  %83 = zext i8 %82 to i64
  %84 = getelementptr inbounds nuw [256 x [4 x i16]], ptr @ff_g723_1_lsp_band2, i64 0, i64 %83
  %85 = getelementptr inbounds [4 x i16], ptr %84, i64 0, i64 0
  %86 = load i16, ptr %85, align 8, !tbaa !11
  %87 = load ptr, ptr %5, align 8, !tbaa !4
  %88 = getelementptr inbounds i16, ptr %87, i64 6
  store i16 %86, ptr %88, align 2, !tbaa !11
  %89 = load ptr, ptr %7, align 8, !tbaa !33
  %90 = getelementptr inbounds i8, ptr %89, i64 2
  %91 = load i8, ptr %90, align 1, !tbaa !16
  %92 = zext i8 %91 to i64
  %93 = getelementptr inbounds nuw [256 x [4 x i16]], ptr @ff_g723_1_lsp_band2, i64 0, i64 %92
  %94 = getelementptr inbounds [4 x i16], ptr %93, i64 0, i64 1
  %95 = load i16, ptr %94, align 2, !tbaa !11
  %96 = load ptr, ptr %5, align 8, !tbaa !4
  %97 = getelementptr inbounds i16, ptr %96, i64 7
  store i16 %95, ptr %97, align 2, !tbaa !11
  %98 = load ptr, ptr %7, align 8, !tbaa !33
  %99 = getelementptr inbounds i8, ptr %98, i64 2
  %100 = load i8, ptr %99, align 1, !tbaa !16
  %101 = zext i8 %100 to i64
  %102 = getelementptr inbounds nuw [256 x [4 x i16]], ptr @ff_g723_1_lsp_band2, i64 0, i64 %101
  %103 = getelementptr inbounds [4 x i16], ptr %102, i64 0, i64 2
  %104 = load i16, ptr %103, align 4, !tbaa !11
  %105 = load ptr, ptr %5, align 8, !tbaa !4
  %106 = getelementptr inbounds i16, ptr %105, i64 8
  store i16 %104, ptr %106, align 2, !tbaa !11
  %107 = load ptr, ptr %7, align 8, !tbaa !33
  %108 = getelementptr inbounds i8, ptr %107, i64 2
  %109 = load i8, ptr %108, align 1, !tbaa !16
  %110 = zext i8 %109 to i64
  %111 = getelementptr inbounds nuw [256 x [4 x i16]], ptr @ff_g723_1_lsp_band2, i64 0, i64 %110
  %112 = getelementptr inbounds [4 x i16], ptr %111, i64 0, i64 3
  %113 = load i16, ptr %112, align 2, !tbaa !11
  %114 = load ptr, ptr %5, align 8, !tbaa !4
  %115 = getelementptr inbounds i16, ptr %114, i64 9
  store i16 %113, ptr %115, align 2, !tbaa !11
  store i32 0, ptr %11, align 4, !tbaa !9
  br label %116

116:                                              ; preds = %151, %25
  %117 = load i32, ptr %11, align 4, !tbaa !9
  %118 = icmp slt i32 %117, 10
  br i1 %118, label %119, label %154

119:                                              ; preds = %116
  %120 = load ptr, ptr %6, align 8, !tbaa !4
  %121 = load i32, ptr %11, align 4, !tbaa !9
  %122 = sext i32 %121 to i64
  %123 = getelementptr inbounds i16, ptr %120, i64 %122
  %124 = load i16, ptr %123, align 2, !tbaa !11
  %125 = sext i16 %124 to i32
  %126 = load i32, ptr %11, align 4, !tbaa !9
  %127 = sext i32 %126 to i64
  %128 = getelementptr inbounds [10 x i16], ptr @dc_lsp, i64 0, i64 %127
  %129 = load i16, ptr %128, align 2, !tbaa !11
  %130 = sext i16 %129 to i32
  %131 = sub nsw i32 %125, %130
  %132 = load i32, ptr %10, align 4, !tbaa !9
  %133 = mul nsw i32 %131, %132
  %134 = add nsw i32 %133, 16384
  %135 = ashr i32 %134, 15
  store i32 %135, ptr %13, align 4, !tbaa !9
  %136 = load i32, ptr %11, align 4, !tbaa !9
  %137 = sext i32 %136 to i64
  %138 = getelementptr inbounds [10 x i16], ptr @dc_lsp, i64 0, i64 %137
  %139 = load i16, ptr %138, align 2, !tbaa !11
  %140 = sext i16 %139 to i32
  %141 = load i32, ptr %13, align 4, !tbaa !9
  %142 = add nsw i32 %140, %141
  %143 = load ptr, ptr %5, align 8, !tbaa !4
  %144 = load i32, ptr %11, align 4, !tbaa !9
  %145 = sext i32 %144 to i64
  %146 = getelementptr inbounds i16, ptr %143, i64 %145
  %147 = load i16, ptr %146, align 2, !tbaa !11
  %148 = sext i16 %147 to i32
  %149 = add nsw i32 %148, %142
  %150 = trunc i32 %149 to i16
  store i16 %150, ptr %146, align 2, !tbaa !11
  br label %151

151:                                              ; preds = %119
  %152 = load i32, ptr %11, align 4, !tbaa !9
  %153 = add nsw i32 %152, 1
  store i32 %153, ptr %11, align 4, !tbaa !9
  br label %116, !llvm.loop !35

154:                                              ; preds = %116
  store i32 0, ptr %11, align 4, !tbaa !9
  br label %155

155:                                              ; preds = %273, %154
  %156 = load i32, ptr %11, align 4, !tbaa !9
  %157 = icmp slt i32 %156, 10
  br i1 %157, label %158, label %276

158:                                              ; preds = %155
  %159 = load ptr, ptr %5, align 8, !tbaa !4
  %160 = getelementptr inbounds i16, ptr %159, i64 0
  %161 = load i16, ptr %160, align 2, !tbaa !11
  %162 = sext i16 %161 to i32
  %163 = icmp sgt i32 %162, 384
  br i1 %163, label %164, label %169

164:                                              ; preds = %158
  %165 = load ptr, ptr %5, align 8, !tbaa !4
  %166 = getelementptr inbounds i16, ptr %165, i64 0
  %167 = load i16, ptr %166, align 2, !tbaa !11
  %168 = sext i16 %167 to i32
  br label %170

169:                                              ; preds = %158
  br label %170

170:                                              ; preds = %169, %164
  %171 = phi i32 [ %168, %164 ], [ 384, %169 ]
  %172 = trunc i32 %171 to i16
  %173 = load ptr, ptr %5, align 8, !tbaa !4
  %174 = getelementptr inbounds i16, ptr %173, i64 0
  store i16 %172, ptr %174, align 2, !tbaa !11
  %175 = load ptr, ptr %5, align 8, !tbaa !4
  %176 = getelementptr inbounds i16, ptr %175, i64 9
  %177 = load i16, ptr %176, align 2, !tbaa !11
  %178 = sext i16 %177 to i32
  %179 = icmp sgt i32 %178, 32256
  br i1 %179, label %180, label %181

180:                                              ; preds = %170
  br label %186

181:                                              ; preds = %170
  %182 = load ptr, ptr %5, align 8, !tbaa !4
  %183 = getelementptr inbounds i16, ptr %182, i64 9
  %184 = load i16, ptr %183, align 2, !tbaa !11
  %185 = sext i16 %184 to i32
  br label %186

186:                                              ; preds = %181, %180
  %187 = phi i32 [ 32256, %180 ], [ %185, %181 ]
  %188 = trunc i32 %187 to i16
  %189 = load ptr, ptr %5, align 8, !tbaa !4
  %190 = getelementptr inbounds i16, ptr %189, i64 9
  store i16 %188, ptr %190, align 2, !tbaa !11
  store i32 1, ptr %12, align 4, !tbaa !9
  br label %191

191:                                              ; preds = %236, %186
  %192 = load i32, ptr %12, align 4, !tbaa !9
  %193 = icmp slt i32 %192, 10
  br i1 %193, label %194, label %239

194:                                              ; preds = %191
  %195 = load i32, ptr %9, align 4, !tbaa !9
  %196 = load ptr, ptr %5, align 8, !tbaa !4
  %197 = load i32, ptr %12, align 4, !tbaa !9
  %198 = sub nsw i32 %197, 1
  %199 = sext i32 %198 to i64
  %200 = getelementptr inbounds i16, ptr %196, i64 %199
  %201 = load i16, ptr %200, align 2, !tbaa !11
  %202 = sext i16 %201 to i32
  %203 = add nsw i32 %195, %202
  %204 = load ptr, ptr %5, align 8, !tbaa !4
  %205 = load i32, ptr %12, align 4, !tbaa !9
  %206 = sext i32 %205 to i64
  %207 = getelementptr inbounds i16, ptr %204, i64 %206
  %208 = load i16, ptr %207, align 2, !tbaa !11
  %209 = sext i16 %208 to i32
  %210 = sub nsw i32 %203, %209
  store i32 %210, ptr %13, align 4, !tbaa !9
  %211 = load i32, ptr %13, align 4, !tbaa !9
  %212 = icmp sgt i32 %211, 0
  br i1 %212, label %213, label %235

213:                                              ; preds = %194
  %214 = load i32, ptr %13, align 4, !tbaa !9
  %215 = ashr i32 %214, 1
  store i32 %215, ptr %13, align 4, !tbaa !9
  %216 = load i32, ptr %13, align 4, !tbaa !9
  %217 = load ptr, ptr %5, align 8, !tbaa !4
  %218 = load i32, ptr %12, align 4, !tbaa !9
  %219 = sub nsw i32 %218, 1
  %220 = sext i32 %219 to i64
  %221 = getelementptr inbounds i16, ptr %217, i64 %220
  %222 = load i16, ptr %221, align 2, !tbaa !11
  %223 = sext i16 %222 to i32
  %224 = sub nsw i32 %223, %216
  %225 = trunc i32 %224 to i16
  store i16 %225, ptr %221, align 2, !tbaa !11
  %226 = load i32, ptr %13, align 4, !tbaa !9
  %227 = load ptr, ptr %5, align 8, !tbaa !4
  %228 = load i32, ptr %12, align 4, !tbaa !9
  %229 = sext i32 %228 to i64
  %230 = getelementptr inbounds i16, ptr %227, i64 %229
  %231 = load i16, ptr %230, align 2, !tbaa !11
  %232 = sext i16 %231 to i32
  %233 = add nsw i32 %232, %226
  %234 = trunc i32 %233 to i16
  store i16 %234, ptr %230, align 2, !tbaa !11
  br label %235

235:                                              ; preds = %213, %194
  br label %236

236:                                              ; preds = %235
  %237 = load i32, ptr %12, align 4, !tbaa !9
  %238 = add nsw i32 %237, 1
  store i32 %238, ptr %12, align 4, !tbaa !9
  br label %191, !llvm.loop !36

239:                                              ; preds = %191
  store i32 1, ptr %14, align 4, !tbaa !9
  store i32 1, ptr %12, align 4, !tbaa !9
  br label %240

240:                                              ; preds = %265, %239
  %241 = load i32, ptr %12, align 4, !tbaa !9
  %242 = icmp slt i32 %241, 10
  br i1 %242, label %243, label %268

243:                                              ; preds = %240
  %244 = load ptr, ptr %5, align 8, !tbaa !4
  %245 = load i32, ptr %12, align 4, !tbaa !9
  %246 = sub nsw i32 %245, 1
  %247 = sext i32 %246 to i64
  %248 = getelementptr inbounds i16, ptr %244, i64 %247
  %249 = load i16, ptr %248, align 2, !tbaa !11
  %250 = sext i16 %249 to i32
  %251 = load i32, ptr %9, align 4, !tbaa !9
  %252 = add nsw i32 %250, %251
  %253 = load ptr, ptr %5, align 8, !tbaa !4
  %254 = load i32, ptr %12, align 4, !tbaa !9
  %255 = sext i32 %254 to i64
  %256 = getelementptr inbounds i16, ptr %253, i64 %255
  %257 = load i16, ptr %256, align 2, !tbaa !11
  %258 = sext i16 %257 to i32
  %259 = sub nsw i32 %252, %258
  %260 = sub nsw i32 %259, 4
  store i32 %260, ptr %13, align 4, !tbaa !9
  %261 = load i32, ptr %13, align 4, !tbaa !9
  %262 = icmp sgt i32 %261, 0
  br i1 %262, label %263, label %264

263:                                              ; preds = %243
  store i32 0, ptr %14, align 4, !tbaa !9
  br label %268

264:                                              ; preds = %243
  br label %265

265:                                              ; preds = %264
  %266 = load i32, ptr %12, align 4, !tbaa !9
  %267 = add nsw i32 %266, 1
  store i32 %267, ptr %12, align 4, !tbaa !9
  br label %240, !llvm.loop !37

268:                                              ; preds = %263, %240
  %269 = load i32, ptr %14, align 4, !tbaa !9
  %270 = icmp ne i32 %269, 0
  br i1 %270, label %271, label %272

271:                                              ; preds = %268
  br label %276

272:                                              ; preds = %268
  br label %273

273:                                              ; preds = %272
  %274 = load i32, ptr %11, align 4, !tbaa !9
  %275 = add nsw i32 %274, 1
  store i32 %275, ptr %11, align 4, !tbaa !9
  br label %155, !llvm.loop !38

276:                                              ; preds = %271, %155
  %277 = load i32, ptr %14, align 4, !tbaa !9
  %278 = icmp ne i32 %277, 0
  br i1 %278, label %282, label %279

279:                                              ; preds = %276
  %280 = load ptr, ptr %5, align 8, !tbaa !4
  %281 = load ptr, ptr %6, align 8, !tbaa !4
  call void @llvm.memcpy.p0.p0.i64(ptr align 2 %280, ptr align 2 %281, i64 20, i1 false)
  br label %282

282:                                              ; preds = %279, %276
  call void @llvm.lifetime.end.p0(i64 4, ptr %14) #6
  call void @llvm.lifetime.end.p0(i64 4, ptr %13) #6
  call void @llvm.lifetime.end.p0(i64 4, ptr %12) #6
  call void @llvm.lifetime.end.p0(i64 4, ptr %11) #6
  call void @llvm.lifetime.end.p0(i64 4, ptr %10) #6
  call void @llvm.lifetime.end.p0(i64 4, ptr %9) #6
  ret void
}