; Function Attrs: nofree norecurse nosync nounwind memory(argmem: readwrite) uwtable
define void @ff_g723_1_inverse_quant(ptr noundef captures(none) initializes((0, 20)) %0, ptr noundef readonly captures(none) %1, ptr noundef captures(none) %2, i32 noundef %3) local_unnamed_addr #0 {
  %.not = icmp eq i32 %3, 0
  br i1 %.not, label %._crit_edge, label %6

._crit_edge:                                      ; preds = %4
  %.pre = load i8, ptr %2, align 1, !tbaa !10
  %5 = zext i8 %.pre to i64
  br label %9

6:                                                ; preds = %4
  %7 = getelementptr inbounds nuw i8, ptr %2, i64 2
  store i8 0, ptr %7, align 1, !tbaa !10
  %8 = getelementptr inbounds nuw i8, ptr %2, i64 1
  store i8 0, ptr %8, align 1, !tbaa !10
  store i8 0, ptr %2, align 1, !tbaa !10
  br label %9

9:                                                ; preds = %._crit_edge, %6
  %10 = phi i64 [ 0, %6 ], [ %5, %._crit_edge ]
  %.073 = phi i32 [ 512, %6 ], [ 256, %._crit_edge ]
  %.072 = phi i32 [ 23552, %6 ], [ 12288, %._crit_edge ]
  %11 = getelementptr inbounds nuw [256 x [3 x i16]], ptr @ff_g723_1_lsp_band0, i64 0, i64 %10
  %12 = load i16, ptr %11, align 2, !tbaa !4
  store i16 %12, ptr %0, align 2, !tbaa !4
  %13 = load i8, ptr %2, align 1, !tbaa !10
  %14 = zext i8 %13 to i64
  %15 = getelementptr inbounds nuw [256 x [3 x i16]], ptr @ff_g723_1_lsp_band0, i64 0, i64 %14, i64 1
  %16 = load i16, ptr %15, align 2, !tbaa !4
  %17 = getelementptr inbounds nuw i8, ptr %0, i64 2
  store i16 %16, ptr %17, align 2, !tbaa !4
  %18 = load i8, ptr %2, align 1, !tbaa !10
  %19 = zext i8 %18 to i64
  %20 = getelementptr inbounds nuw [256 x [3 x i16]], ptr @ff_g723_1_lsp_band0, i64 0, i64 %19, i64 2
  %21 = load i16, ptr %20, align 2, !tbaa !4
  %22 = getelementptr inbounds nuw i8, ptr %0, i64 4
  store i16 %21, ptr %22, align 2, !tbaa !4
  %23 = getelementptr inbounds nuw i8, ptr %2, i64 1
  %24 = load i8, ptr %23, align 1, !tbaa !10
  %25 = zext i8 %24 to i64
  %26 = getelementptr inbounds nuw [256 x [3 x i16]], ptr @ff_g723_1_lsp_band1, i64 0, i64 %25
  %27 = load i16, ptr %26, align 2, !tbaa !4
  %28 = getelementptr inbounds nuw i8, ptr %0, i64 6
  store i16 %27, ptr %28, align 2, !tbaa !4
  %29 = load i8, ptr %23, align 1, !tbaa !10
  %30 = zext i8 %29 to i64
  %31 = getelementptr inbounds nuw [256 x [3 x i16]], ptr @ff_g723_1_lsp_band1, i64 0, i64 %30, i64 1
  %32 = load i16, ptr %31, align 2, !tbaa !4
  %33 = getelementptr inbounds nuw i8, ptr %0, i64 8
  store i16 %32, ptr %33, align 2, !tbaa !4
  %34 = load i8, ptr %23, align 1, !tbaa !10
  %35 = zext i8 %34 to i64
  %36 = getelementptr inbounds nuw [256 x [3 x i16]], ptr @ff_g723_1_lsp_band1, i64 0, i64 %35, i64 2
  %37 = load i16, ptr %36, align 2, !tbaa !4
  %38 = getelementptr inbounds nuw i8, ptr %0, i64 10
  store i16 %37, ptr %38, align 2, !tbaa !4
  %39 = getelementptr inbounds nuw i8, ptr %2, i64 2
  %40 = load i8, ptr %39, align 1, !tbaa !10
  %41 = zext i8 %40 to i64
  %42 = getelementptr inbounds nuw [256 x [4 x i16]], ptr @ff_g723_1_lsp_band2, i64 0, i64 %41
  %43 = load i16, ptr %42, align 8, !tbaa !4
  %44 = getelementptr inbounds nuw i8, ptr %0, i64 12
  store i16 %43, ptr %44, align 2, !tbaa !4
  %45 = load i8, ptr %39, align 1, !tbaa !10
  %46 = zext i8 %45 to i64
  %47 = getelementptr inbounds nuw [256 x [4 x i16]], ptr @ff_g723_1_lsp_band2, i64 0, i64 %46, i64 1
  %48 = load i16, ptr %47, align 2, !tbaa !4
  %49 = getelementptr inbounds nuw i8, ptr %0, i64 14
  store i16 %48, ptr %49, align 2, !tbaa !4
  %50 = load i8, ptr %39, align 1, !tbaa !10
  %51 = zext i8 %50 to i64
  %52 = getelementptr inbounds nuw [256 x [4 x i16]], ptr @ff_g723_1_lsp_band2, i64 0, i64 %51, i64 2
  %53 = load i16, ptr %52, align 4, !tbaa !4
  %54 = getelementptr inbounds nuw i8, ptr %0, i64 16
  store i16 %53, ptr %54, align 2, !tbaa !4
  %55 = load i8, ptr %39, align 1, !tbaa !10
  %56 = zext i8 %55 to i64
  %57 = getelementptr inbounds nuw [256 x [4 x i16]], ptr @ff_g723_1_lsp_band2, i64 0, i64 %56, i64 3
  %58 = load i16, ptr %57, align 2, !tbaa !4
  %59 = getelementptr inbounds nuw i8, ptr %0, i64 18
  store i16 %58, ptr %59, align 2, !tbaa !4
  br label %60

60:                                               ; preds = %9, %60
  %indvars.iv = phi i64 [ 0, %9 ], [ %indvars.iv.next, %60 ]
  %61 = getelementptr inbounds nuw i16, ptr %1, i64 %indvars.iv
  %62 = load i16, ptr %61, align 2, !tbaa !4
  %63 = sext i16 %62 to i32
  %64 = getelementptr inbounds nuw [10 x i16], ptr @dc_lsp, i64 0, i64 %indvars.iv
  %65 = load i16, ptr %64, align 2, !tbaa !4
  %66 = sext i16 %65 to i32
  %67 = sub nsw i32 %63, %66
  %68 = mul nsw i32 %67, %.072
  %69 = add nsw i32 %68, 16384
  %70 = lshr i32 %69, 15
  %71 = getelementptr inbounds nuw i16, ptr %0, i64 %indvars.iv
  %72 = load i16, ptr %71, align 2, !tbaa !4
  %73 = trunc i32 %70 to i16
  %74 = add i16 %72, %65
  %75 = add i16 %74, %73
  store i16 %75, ptr %71, align 2, !tbaa !4
  %indvars.iv.next = add nuw nsw i64 %indvars.iv, 1
  %exitcond.not = icmp eq i64 %indvars.iv.next, 10
  br i1 %exitcond.not, label %.preheader81, label %60, !llvm.loop !26

.preheader81:                                     ; preds = %60, %105
  %.17185 = phi i32 [ %106, %105 ], [ 0, %60 ]
  %76 = load i16, ptr %0, align 2, !tbaa !4
  %spec.select = tail call i16 @llvm.smax.i16(i16 %76, i16 384)
  store i16 %spec.select, ptr %0, align 2, !tbaa !4
  %77 = load i16, ptr %59, align 2, !tbaa !4
  %78 = tail call i16 @llvm.smin.i16(i16 %77, i16 32256)
  store i16 %78, ptr %59, align 2, !tbaa !4
  br label %79

79:                                               ; preds = %.preheader81, %94
  %indvars.iv87 = phi i64 [ 1, %.preheader81 ], [ %indvars.iv.next88, %94 ]
  %80 = getelementptr i16, ptr %0, i64 %indvars.iv87
  %81 = getelementptr i8, ptr %80, i64 -2
  %82 = load i16, ptr %81, align 2, !tbaa !4
  %83 = sext i16 %82 to i32
  %84 = add nsw i32 %.073, %83
  %85 = load i16, ptr %80, align 2, !tbaa !4
  %86 = sext i16 %85 to i32
  %87 = sub nsw i32 %84, %86
  %88 = icmp sgt i32 %87, 0
  br i1 %88, label %89, label %94

89:                                               ; preds = %79
  %90 = lshr i32 %87, 1
  %91 = trunc i32 %90 to i16
  %92 = sub i16 %82, %91
  store i16 %92, ptr %81, align 2, !tbaa !4
  %93 = add i16 %85, %91
  store i16 %93, ptr %80, align 2, !tbaa !4
  br label %94

94:                                               ; preds = %79, %89
  %indvars.iv.next88 = add nuw nsw i64 %indvars.iv87, 1
  %exitcond90.not = icmp eq i64 %indvars.iv.next88, 10
  br i1 %exitcond90.not, label %.preheader, label %79, !llvm.loop !27

95:                                               ; preds = %.preheader
  %indvars.iv.next92 = add nuw nsw i64 %indvars.iv91, 1
  %exitcond94.not = icmp eq i64 %indvars.iv.next92, 10
  br i1 %exitcond94.not, label %.critedge, label %.preheader, !llvm.loop !28

.preheader:                                       ; preds = %94, %95
  %indvars.iv91 = phi i64 [ %indvars.iv.next92, %95 ], [ 1, %94 ]
  %96 = getelementptr i16, ptr %0, i64 %indvars.iv91
  %97 = getelementptr i8, ptr %96, i64 -2
  %98 = load i16, ptr %97, align 2, !tbaa !4
  %99 = sext i16 %98 to i32
  %100 = add nsw i32 %.073, %99
  %101 = load i16, ptr %96, align 2, !tbaa !4
  %102 = sext i16 %101 to i32
  %103 = sub nsw i32 %100, %102
  %104 = icmp sgt i32 %103, 4
  br i1 %104, label %105, label %95

105:                                              ; preds = %.preheader
  %106 = add nuw nsw i32 %.17185, 1
  %exitcond95 = icmp eq i32 %106, 10
  br i1 %exitcond95, label %.critedge79, label %.preheader81, !llvm.loop !29

.critedge79:                                      ; preds = %105
  tail call void @llvm.memcpy.p0.p0.i64(ptr noundef nonnull align 2 dereferenceable(20) %0, ptr noundef nonnull align 2 dereferenceable(20) %1, i64 20, i1 false)
  br label %.critedge

.critedge:                                        ; preds = %95, %.critedge79
  ret void
}